; Function Attrs: mustprogress nofree norecurse nosync nounwind willreturn memory(readwrite, inaccessiblemem: none) uwtable
define hidden void @_ZN3euf13th_euf_solver8pop_coreEj(ptr nocapture noundef nonnull readonly align 8 dereferenceable(108) %this, i32 noundef %num_scopes) unnamed_addr #9 align 2 {
entry:
  %m_var2enode_lim = getelementptr inbounds i8, ptr %this, i64 96
  %0 = load ptr, ptr %m_var2enode_lim, align 8
  %cmp.i = icmp eq ptr %0, null
  br i1 %cmp.i, label %_ZNK6vectorIjLb0EjE4sizeEv.exit, label %if.end.i

if.end.i:                                         ; preds = %entry
  %arrayidx.i = getelementptr inbounds i8, ptr %0, i64 -4
  %1 = load i32, ptr %arrayidx.i, align 4
  br label %_ZNK6vectorIjLb0EjE4sizeEv.exit

_ZNK6vectorIjLb0EjE4sizeEv.exit:                  ; preds = %entry, %if.end.i
  %retval.0.i = phi i32 [ %1, %if.end.i ], [ 0, %entry ]
  %sub = sub i32 %retval.0.i, %num_scopes
  %m_var2enode = getelementptr inbounds i8, ptr %this, i64 88
  %2 = load ptr, ptr %m_var2enode, align 8
  %tobool.not.i = icmp eq ptr %2, null
  br i1 %tobool.not.i, label %_ZN6vectorIPN3euf5enodeELb0EjE6shrinkEj.exit, label %if.then.i

if.then.i:                                        ; preds = %_ZNK6vectorIjLb0EjE4sizeEv.exit
  %idxprom.i = zext i32 %sub to i64
  %arrayidx.i2 = getelementptr inbounds i32, ptr %0, i64 %idxprom.i
  %3 = load i32, ptr %arrayidx.i2, align 4
  %arrayidx.i3 = getelementptr inbounds i8, ptr %2, i64 -4
  store i32 %3, ptr %arrayidx.i3, align 4
  %.pre = load ptr, ptr %m_var2enode_lim, align 8
  br label %_ZN6vectorIPN3euf5enodeELb0EjE6shrinkEj.exit

_ZN6vectorIPN3euf5enodeELb0EjE6shrinkEj.exit:     ; preds = %_ZNK6vectorIjLb0EjE4sizeEv.exit, %if.then.i
  %4 = phi ptr [ %0, %_ZNK6vectorIjLb0EjE4sizeEv.exit ], [ %.pre, %if.then.i ]
  %tobool.not.i5 = icmp eq ptr %4, null
  br i1 %tobool.not.i5, label %_ZN6vectorIjLb0EjE6shrinkEj.exit, label %if.then.i6

if.then.i6:                                       ; preds = %_ZN6vectorIPN3euf5enodeELb0EjE6shrinkEj.exit
  %arrayidx.i7 = getelementptr inbounds i8, ptr %4, i64 -4
  store i32 %sub, ptr %arrayidx.i7, align 4
  br label %_ZN6vectorIjLb0EjE6shrinkEj.exit

_ZN6vectorIjLb0EjE6shrinkEj.exit:                 ; preds = %_ZN6vectorIPN3euf5enodeELb0EjE6shrinkEj.exit, %if.then.i6
  ret void
}